target datalayout = "e-m:e-p270:32:32-p271:32:32-p272:64:64-i64:64-i128:128-f80:128-n8:16:32:64-S128"
target triple = "x86_64-pc-linux-gnu"

%class.AbsSeq = type { ptr, i32, double, double, double, double, double }
%class.TruncatedSeq = type { %class.AbsSeq, ptr, i32, i32 }

@g_assert_poison = external global ptr, align 8
@.str = private unnamed_addr constant [42 x i8] c"src/hotspot/share/utilities/numberSeq.cpp\00", align 1
@.str.8 = private unnamed_addr constant [36 x i8] c"guarantee(variance() > -1.0) failed\00", align 1
@.str.9 = private unnamed_addr constant [24 x i8] c"variance should be >= 0\00", align 1

; Function Attrs: mustprogress nounwind uwtable
define hidden noundef double @_ZNK6AbsSeq3avgEv(ptr noundef nonnull align 8 dereferenceable(56) %0) #1 align 2 {
  %2 = alloca double, align 8
  %3 = alloca ptr, align 8
  store ptr %0, ptr %3, align 8
  %4 = load ptr, ptr %3, align 8
  %5 = getelementptr inbounds %class.AbsSeq, ptr %4, i32 0, i32 1
  %6 = load i32, ptr %5, align 8
  %7 = icmp eq i32 %6, 0
  br i1 %7, label %8, label %9

8:                                                ; preds = %1
  store double 0.000000e+00, ptr %2, align 8
  br label %17

9:                                                ; preds = %1
  %10 = getelementptr inbounds %class.AbsSeq, ptr %4, i32 0, i32 2
  %11 = load double, ptr %10, align 8
  %12 = load ptr, ptr %4, align 8
  %13 = getelementptr inbounds ptr, ptr %12, i64 0
  %14 = load ptr, ptr %13, align 8
  %15 = call noundef double %14(ptr noundef nonnull align 8 dereferenceable(56) %4)
  %16 = fdiv double %11, %15
  store double %16, ptr %2, align 8
  br label %17

17:                                               ; preds = %9, %8
  %18 = load double, ptr %2, align 8
  ret double %18
}

; Function Attrs: mustprogress nounwind uwtable
define hidden noundef double @_ZNK6AbsSeq8varianceEv(ptr noundef nonnull align 8 dereferenceable(56) %0) #1 align 2 {
  %2 = alloca double, align 8
  %3 = alloca ptr, align 8
  %4 = alloca double, align 8
  %5 = alloca double, align 8
  store ptr %0, ptr %3, align 8
  %6 = load ptr, ptr %3, align 8
  %7 = getelementptr inbounds %class.AbsSeq, ptr %6, i32 0, i32 1
  %8 = load i32, ptr %7, align 8
  %9 = icmp sle i32 %8, 1
  br i1 %9, label %10, label %11

10:                                               ; preds = %1
  store double 0.000000e+00, ptr %2, align 8
  br label %29

11:                                               ; preds = %1
  %12 = call noundef double @_ZNK6AbsSeq3avgEv(ptr noundef nonnull align 8 dereferenceable(56) %6)
  store double %12, ptr %4, align 8
  %13 = getelementptr inbounds %class.AbsSeq, ptr %6, i32 0, i32 3
  %14 = load double, ptr %13, align 8
  %15 = load ptr, ptr %6, align 8
  %16 = getelementptr inbounds ptr, ptr %15, i64 0
  %17 = load ptr, ptr %16, align 8
  %18 = call noundef double %17(ptr noundef nonnull align 8 dereferenceable(56) %6)
  %19 = fdiv double %14, %18
  %20 = load double, ptr %4, align 8
  %21 = load double, ptr %4, align 8
  %22 = fneg double %20
  %23 = call double @llvm.fmuladd.f64(double %22, double %21, double %19)
  store double %23, ptr %5, align 8
  %24 = load double, ptr %5, align 8
  %25 = fcmp olt double %24, 0.000000e+00
  br i1 %25, label %26, label %27

26:                                               ; preds = %11
  store double 0.000000e+00, ptr %5, align 8
  br label %27

27:                                               ; preds = %26, %11
  %28 = load double, ptr %5, align 8
  store double %28, ptr %2, align 8
  br label %29

29:                                               ; preds = %27, %10
  %30 = load double, ptr %2, align 8
  ret double %30
}

; Function Attrs: mustprogress nounwind uwtable
define hidden void @_ZN6AbsSeq3addEd(ptr noundef nonnull align 8 dereferenceable(56) %0, double noundef %1) unnamed_addr #1 align 2 {
  %3 = alloca ptr, align 8
  %4 = alloca double, align 8
  %5 = alloca double, align 8
  %6 = alloca double, align 8
  store ptr %0, ptr %3, align 8
  store double %1, ptr %4, align 8
  %7 = load ptr, ptr %3, align 8
  %8 = getelementptr inbounds %class.AbsSeq, ptr %7, i32 0, i32 1
  %9 = load i32, ptr %8, align 8
  %10 = icmp eq i32 %9, 0
  br i1 %10, label %11, label %15

11:                                               ; preds = %2
  %12 = load double, ptr %4, align 8
  %13 = getelementptr inbounds %class.AbsSeq, ptr %7, i32 0, i32 4
  store double %12, ptr %13, align 8
  %14 = getelementptr inbounds %class.AbsSeq, ptr %7, i32 0, i32 5
  store double 0.000000e+00, ptr %14, align 8
  br label %38

15:                                               ; preds = %2
  %16 = load double, ptr %4, align 8
  %17 = getelementptr inbounds %class.AbsSeq, ptr %7, i32 0, i32 4
  %18 = load double, ptr %17, align 8
  %19 = fsub double %16, %18
  store double %19, ptr %5, align 8
  %20 = getelementptr inbounds %class.AbsSeq, ptr %7, i32 0, i32 6
  %21 = load double, ptr %20, align 8
  %22 = load double, ptr %5, align 8
  %23 = fmul double %21, %22
  store double %23, ptr %6, align 8
  %24 = load double, ptr %6, align 8
  %25 = getelementptr inbounds %class.AbsSeq, ptr %7, i32 0, i32 4
  %26 = load double, ptr %25, align 8
  %27 = fadd double %26, %24
  store double %27, ptr %25, align 8
  %28 = getelementptr inbounds %class.AbsSeq, ptr %7, i32 0, i32 6
  %29 = load double, ptr %28, align 8
  %30 = fsub double 1.000000e+00, %29
  %31 = getelementptr inbounds %class.AbsSeq, ptr %7, i32 0, i32 5
  %32 = load double, ptr %31, align 8
  %33 = load double, ptr %5, align 8
  %34 = load double, ptr %6, align 8
  %35 = call double @llvm.fmuladd.f64(double %33, double %34, double %32)
  %36 = fmul double %30, %35
  %37 = getelementptr inbounds %class.AbsSeq, ptr %7, i32 0, i32 5
  store double %36, ptr %37, align 8
  br label %38

38:                                               ; preds = %15, %11
  ret void
}

; Function Attrs: mustprogress nounwind uwtable
define hidden void @_ZN12TruncatedSeq3addEd(ptr noundef nonnull align 8 dereferenceable(72) %0, double noundef %1) unnamed_addr #1 align 2 {
  %3 = alloca ptr, align 8
  %4 = alloca double, align 8
  %5 = alloca double, align 8
  store ptr %0, ptr %3, align 8
  store double %1, ptr %4, align 8
  %6 = load ptr, ptr %3, align 8
  %7 = load double, ptr %4, align 8
  call void @_ZN6AbsSeq3addEd(ptr noundef nonnull align 8 dereferenceable(56) %6, double noundef %7)
  %8 = getelementptr inbounds %class.TruncatedSeq, ptr %6, i32 0, i32 1
  %9 = load ptr, ptr %8, align 8
  %10 = getelementptr inbounds %class.TruncatedSeq, ptr %6, i32 0, i32 3
  %11 = load i32, ptr %10, align 4
  %12 = sext i32 %11 to i64
  %13 = getelementptr inbounds double, ptr %9, i64 %12
  %14 = load double, ptr %13, align 8
  store double %14, ptr %5, align 8
  %15 = load double, ptr %5, align 8
  %16 = getelementptr inbounds %class.AbsSeq, ptr %6, i32 0, i32 2
  %17 = load double, ptr %16, align 8
  %18 = fsub double %17, %15
  store double %18, ptr %16, align 8
  %19 = load double, ptr %5, align 8
  %20 = load double, ptr %5, align 8
  %21 = getelementptr inbounds %class.AbsSeq, ptr %6, i32 0, i32 3
  %22 = load double, ptr %21, align 8
  %23 = fneg double %19
  %24 = call double @llvm.fmuladd.f64(double %23, double %20, double %22)
  store double %24, ptr %21, align 8
  %25 = load double, ptr %4, align 8
  %26 = getelementptr inbounds %class.AbsSeq, ptr %6, i32 0, i32 2
  %27 = load double, ptr %26, align 8
  %28 = fadd double %27, %25
  store double %28, ptr %26, align 8
  %29 = load double, ptr %4, align 8
  %30 = load double, ptr %4, align 8
  %31 = getelementptr inbounds %class.AbsSeq, ptr %6, i32 0, i32 3
  %32 = load double, ptr %31, align 8
  %33 = call double @llvm.fmuladd.f64(double %29, double %30, double %32)
  store double %33, ptr %31, align 8
  %34 = load double, ptr %4, align 8
  %35 = getelementptr inbounds %class.TruncatedSeq, ptr %6, i32 0, i32 1
  %36 = load ptr, ptr %35, align 8
  %37 = getelementptr inbounds %class.TruncatedSeq, ptr %6, i32 0, i32 3
  %38 = load i32, ptr %37, align 4
  %39 = sext i32 %38 to i64
  %40 = getelementptr inbounds double, ptr %36, i64 %39
  store double %34, ptr %40, align 8
  %41 = getelementptr inbounds %class.TruncatedSeq, ptr %6, i32 0, i32 3
  %42 = load i32, ptr %41, align 4
  %43 = add nsw i32 %42, 1
  %44 = getelementptr inbounds %class.TruncatedSeq, ptr %6, i32 0, i32 2
  %45 = load i32, ptr %44, align 8
  %46 = srem i32 %43, %45
  %47 = getelementptr inbounds %class.TruncatedSeq, ptr %6, i32 0, i32 3
  store i32 %46, ptr %47, align 4
  %48 = getelementptr inbounds %class.AbsSeq, ptr %6, i32 0, i32 1
  %49 = load i32, ptr %48, align 8
  %50 = getelementptr inbounds %class.TruncatedSeq, ptr %6, i32 0, i32 2
  %51 = load i32, ptr %50, align 8
  %52 = icmp slt i32 %49, %51
  br i1 %52, label %53, label %57

53:                                               ; preds = %2
  %54 = getelementptr inbounds %class.AbsSeq, ptr %6, i32 0, i32 1
  %55 = load i32, ptr %54, align 8
  %56 = add nsw i32 %55, 1
  store i32 %56, ptr %54, align 8
  br label %57

57:                                               ; preds = %53, %2
  br label %58

58:                                               ; preds = %57
  %59 = call noundef double @_ZNK6AbsSeq8varianceEv(ptr noundef nonnull align 8 dereferenceable(56) %6)
  %60 = fcmp ogt double %59, -1.000000e+00
  br i1 %60, label %63, label %61

61:                                               ; preds = %58
  %62 = load ptr, ptr @g_assert_poison, align 8
  store i8 88, ptr %62, align 1
  call void (ptr, i32, ptr, ptr, ...) @_Z15report_vm_errorPKciS0_S0_z(ptr noundef @.str, i32 noundef 173, ptr noundef @.str.8, ptr noundef @.str.9) #6
  unreachable

63:                                               ; preds = %58
  br label %64

64:                                               ; preds = %63
  ret void
}