; Function Attrs: mustprogress nounwind uwtable
define hidden void @_ZN12TruncatedSeq3addEd(ptr noundef nonnull align 8 dereferenceable(72) %0, double noundef %1) unnamed_addr #3 align 2 {
  %3 = getelementptr inbounds i8, ptr %0, i64 8
  %4 = load i32, ptr %3, align 8
  %5 = icmp eq i32 %4, 0
  %6 = getelementptr inbounds i8, ptr %0, i64 32
  br i1 %5, label %7, label %9

7:                                                ; preds = %2
  store double %1, ptr %6, align 8
  %8 = getelementptr inbounds i8, ptr %0, i64 40
  store double 0.000000e+00, ptr %8, align 8
  br label %_ZN6AbsSeq3addEd.exit

9:                                                ; preds = %2
  %10 = load double, ptr %6, align 8
  %11 = fsub double %1, %10
  %12 = getelementptr inbounds i8, ptr %0, i64 48
  %13 = load double, ptr %12, align 8
  %14 = fmul double %13, %11
  %15 = fadd double %10, %14
  store double %15, ptr %6, align 8
  %16 = fsub double 1.000000e+00, %13
  %17 = getelementptr inbounds i8, ptr %0, i64 40
  %18 = load double, ptr %17, align 8
  %19 = tail call double @llvm.fmuladd.f64(double %11, double %14, double %18)
  %20 = fmul double %16, %19
  store double %20, ptr %17, align 8
  br label %_ZN6AbsSeq3addEd.exit

_ZN6AbsSeq3addEd.exit:                            ; preds = %7, %9
  %21 = getelementptr inbounds i8, ptr %0, i64 56
  %22 = load ptr, ptr %21, align 8
  %23 = getelementptr inbounds i8, ptr %0, i64 68
  %24 = load i32, ptr %23, align 4
  %25 = sext i32 %24 to i64
  %26 = getelementptr inbounds double, ptr %22, i64 %25
  %27 = load double, ptr %26, align 8
  %28 = getelementptr inbounds i8, ptr %0, i64 16
  %29 = load double, ptr %28, align 8
  %30 = fsub double %29, %27
  %31 = getelementptr inbounds i8, ptr %0, i64 24
  %32 = load double, ptr %31, align 8
  %33 = fneg double %27
  %34 = tail call double @llvm.fmuladd.f64(double %33, double %27, double %32)
  %35 = fadd double %30, %1
  store double %35, ptr %28, align 8
  %36 = tail call double @llvm.fmuladd.f64(double %1, double %1, double %34)
  store double %36, ptr %31, align 8
  store double %1, ptr %26, align 8
  %37 = load i32, ptr %23, align 4
  %38 = add nsw i32 %37, 1
  %39 = getelementptr inbounds i8, ptr %0, i64 64
  %40 = load i32, ptr %39, align 8
  %41 = srem i32 %38, %40
  store i32 %41, ptr %23, align 4
  %42 = load i32, ptr %3, align 8
  %43 = icmp slt i32 %42, %40
  br i1 %43, label %44, label %46

44:                                               ; preds = %_ZN6AbsSeq3addEd.exit
  %45 = add nsw i32 %42, 1
  store i32 %45, ptr %3, align 8
  br label %46

46:                                               ; preds = %_ZN6AbsSeq3addEd.exit, %44
  %47 = phi i32 [ %42, %_ZN6AbsSeq3addEd.exit ], [ %45, %44 ]
  %48 = icmp slt i32 %47, 2
  br i1 %48, label %_ZNK6AbsSeq8varianceEv.exit.thread, label %_ZNK6AbsSeq3avgEv.exit.i

_ZNK6AbsSeq3avgEv.exit.i:                         ; preds = %46
  %49 = load double, ptr %28, align 8
  %50 = load ptr, ptr %0, align 8
  %51 = load ptr, ptr %50, align 8
  %52 = tail call noundef double %51(ptr noundef nonnull align 8 dereferenceable(56) %0) #12
  %53 = fdiv double %49, %52
  %54 = load double, ptr %31, align 8
  %55 = load ptr, ptr %0, align 8
  %56 = load ptr, ptr %55, align 8
  %57 = tail call noundef double %56(ptr noundef nonnull align 8 dereferenceable(56) %0) #12
  %58 = fdiv double %54, %57
  %59 = fneg double %53
  %60 = tail call double @llvm.fmuladd.f64(double %59, double %53, double %58)
  %61 = fcmp olt double %60, 0.000000e+00
  %62 = fcmp ogt double %60, -1.000000e+00
  %or.cond = or i1 %61, %62
  br i1 %or.cond, label %_ZNK6AbsSeq8varianceEv.exit.thread, label %63

63:                                               ; preds = %_ZNK6AbsSeq3avgEv.exit.i
  %64 = load ptr, ptr @g_assert_poison, align 8
  store i8 88, ptr %64, align 1
  tail call void (ptr, i32, ptr, ptr, ...) @_Z15report_vm_errorPKciS0_S0_z(ptr noundef nonnull @.str, i32 noundef 173, ptr noundef nonnull @.str.8, ptr noundef nonnull @.str.9) #13
  unreachable

_ZNK6AbsSeq8varianceEv.exit.thread:               ; preds = %_ZNK6AbsSeq3avgEv.exit.i, %46
  ret void
}